target datalayout = "e-m:e-p270:32:32-p271:32:32-p272:64:64-i64:64-i128:128-f80:128-n8:16:32:64-S128"
target triple = "x86_64-pc-linux-gnu"

@bio_err = external global ptr, align 8
@mr = internal global i32 0, align 4
@run = internal global i32 0, align 4
@.str.473 = private unnamed_addr constant [15 x i8] c"+DTP:%s:%s:%d\0A\00", align 1
@.str.474 = private unnamed_addr constant [26 x i8] c"Doing %s %s ops for %ds: \00", align 1

; Function Attrs: nounwind uwtable
define internal void @kskey_print_message(ptr noundef %0, ptr noundef %1, i32 noundef %2) #0 {
  %4 = alloca ptr, align 8
  %5 = alloca ptr, align 8
  %6 = alloca i32, align 4
  store ptr %0, ptr %4, align 8, !tbaa !39
  store ptr %1, ptr %5, align 8, !tbaa !39
  store i32 %2, ptr %6, align 4, !tbaa !4
  %7 = load ptr, ptr @bio_err, align 8, !tbaa !53
  %8 = load i32, ptr @mr, align 4, !tbaa !4
  %9 = icmp ne i32 %8, 0
  %10 = select i1 %9, ptr @.str.473, ptr @.str.474
  %11 = load ptr, ptr %4, align 8, !tbaa !39
  %12 = load ptr, ptr %5, align 8, !tbaa !39
  %13 = load i32, ptr %6, align 4, !tbaa !4
  %14 = call i32 (ptr, ptr, ...) @BIO_printf(ptr noundef %7, ptr noundef %10, ptr noundef %11, ptr noundef %12, i32 noundef %13)
  %15 = load ptr, ptr @bio_err, align 8, !tbaa !53
  %16 = call i64 @BIO_ctrl(ptr noundef %15, i32 noundef 11, i64 noundef 0, ptr noundef null)
  store volatile i32 1, ptr @run, align 4, !tbaa !4
  %17 = load i32, ptr %6, align 4, !tbaa !4
  %18 = call i32 @alarm(i32 noundef %17) #11
  ret void
}