; Function Attrs: nounwind uwtable
define internal fastcc void @kskey_print_message(ptr noundef %0, ptr noundef %1, i32 noundef %2) unnamed_addr #0 {
  %4 = load ptr, ptr @bio_err, align 8, !tbaa !19
  %.b = load i1, ptr @mr, align 4
  %5 = select i1 %.b, ptr @.str.473, ptr @.str.474
  %6 = tail call i32 (ptr, ptr, ...) @BIO_printf(ptr noundef %4, ptr noundef nonnull %5, ptr noundef %0, ptr noundef %1, i32 noundef %2) #14
  %7 = load ptr, ptr @bio_err, align 8, !tbaa !19
  %8 = tail call i64 @BIO_ctrl(ptr noundef %7, i32 noundef 11, i64 noundef 0, ptr noundef null) #14
  store volatile i32 1, ptr @run, align 4, !tbaa !13
  %9 = tail call i32 @alarm(i32 noundef %2) #14
  ret void
}